; Function Attrs: nofree nosync nounwind memory(readwrite, inaccessiblemem: none) uwtable
define float @Lf_CutDeref_rec(ptr noundef readonly captures(none) %0, ptr noundef readonly captures(none) %1) local_unnamed_addr #9 {
  %3 = alloca [10 x i64], align 16
  call void @llvm.lifetime.start.p0(i64 80, ptr nonnull %3) #34
  call void @llvm.memset.p0.i64(ptr noundef nonnull align 16 dereferenceable(80) %3, i8 0, i64 80, i1 false)
  %4 = getelementptr inbounds nuw i8, ptr %1, i64 20
  %5 = load i32, ptr %4, align 4
  %6 = lshr i32 %5, 24
  %7 = icmp ugt i32 %5, 33554431
  %8 = and i32 %5, 8388608
  %.not.i = icmp eq i32 %8, 0
  %or.cond.i = and i1 %7, %.not.i
  br i1 %or.cond.i, label %9, label %Lf_CutArea.exit

9:                                                ; preds = %2
  %10 = getelementptr inbounds nuw i8, ptr %0, i64 8
  %11 = load ptr, ptr %10, align 8, !tbaa !55
  %12 = getelementptr inbounds nuw i8, ptr %11, i64 80
  %13 = load i32, ptr %12, align 8, !tbaa !56
  %.not17.i = icmp eq i32 %13, 0
  br i1 %.not17.i, label %27, label %.lr.ph.i.i

.lr.ph.i.i:                                       ; preds = %9
  %14 = getelementptr inbounds nuw i8, ptr %1, i64 24
  %15 = getelementptr i8, ptr %0, i64 256
  %.val.i.i = load ptr, ptr %15, align 8, !tbaa !58
  %wide.trip.count.i.i = zext nneg i32 %6 to i64
  br label %16

16:                                               ; preds = %16, %.lr.ph.i.i
  %indvars.iv.i.i = phi i64 [ 0, %.lr.ph.i.i ], [ %indvars.iv.next.i.i, %16 ]
  %.078.i.i = phi float [ 0.000000e+00, %.lr.ph.i.i ], [ %22, %16 ]
  %17 = getelementptr inbounds nuw [0 x i32], ptr %14, i64 0, i64 %indvars.iv.i.i
  %18 = load i32, ptr %17, align 4, !tbaa !40
  %19 = sext i32 %18 to i64
  %20 = getelementptr inbounds float, ptr %.val.i.i, i64 %19
  %21 = load float, ptr %20, align 4, !tbaa !59
  %22 = fadd float %.078.i.i, %21
  %indvars.iv.next.i.i = add nuw nsw i64 %indvars.iv.i.i, 1
  %exitcond.not.i.i = icmp eq i64 %indvars.iv.next.i.i, %wide.trip.count.i.i
  br i1 %exitcond.not.i.i, label %Lf_CutSwitches.exit.i, label %16, !llvm.loop !60

Lf_CutSwitches.exit.i:                            ; preds = %16
  %23 = uitofp nneg i32 %6 to double
  %24 = fpext float %22 to double
  %25 = fadd double %23, %24
  %26 = fptrunc double %25 to float
  br label %Lf_CutArea.exit

27:                                               ; preds = %9
  %28 = getelementptr inbounds nuw i8, ptr %11, i64 72
  %29 = load i32, ptr %28, align 8, !tbaa !61
  %.not18.i = icmp eq i32 %29, 0
  br i1 %.not18.i, label %45, label %30

30:                                               ; preds = %27
  %31 = getelementptr inbounds nuw i8, ptr %11, i64 28
  %32 = load i32, ptr %31, align 4, !tbaa !62
  %33 = add nsw i32 %32, %6
  %34 = getelementptr inbounds nuw i8, ptr %11, i64 132
  %35 = load i32, ptr %34, align 4, !tbaa !63
  %.not20.i = icmp eq i32 %35, 0
  br i1 %.not20.i, label %41, label %36

36:                                               ; preds = %30
  %37 = load i32, ptr %11, align 8, !tbaa !64
  %38 = sdiv i32 %37, 2
  %39 = icmp sgt i32 %6, %38
  %40 = select i1 %39, i32 2, i32 1
  br label %41

41:                                               ; preds = %36, %30
  %42 = phi i32 [ 1, %30 ], [ %40, %36 ]
  %43 = mul nsw i32 %42, %33
  %44 = sitofp i32 %43 to float
  br label %.lr.ph

45:                                               ; preds = %27
  %46 = getelementptr inbounds nuw i8, ptr %11, i64 132
  %47 = load i32, ptr %46, align 4, !tbaa !63
  %.not19.i = icmp eq i32 %47, 0
  br i1 %.not19.i, label %.lr.ph, label %48

48:                                               ; preds = %45
  %49 = load i32, ptr %11, align 8, !tbaa !64
  %50 = sdiv i32 %49, 2
  %51 = icmp sgt i32 %6, %50
  %52 = select i1 %51, i32 2, i32 1
  %53 = uitofp nneg i32 %52 to float
  br label %.lr.ph

Lf_CutArea.exit:                                  ; preds = %2, %Lf_CutSwitches.exit.i
  %.0.i = phi float [ %26, %Lf_CutSwitches.exit.i ], [ 0.000000e+00, %2 ]
  %.not24 = icmp ult i32 %5, 16777216
  br i1 %.not24, label %.critedge, label %.lr.ph

.lr.ph:                                           ; preds = %48, %45, %41, %Lf_CutArea.exit
  %.0.i28 = phi float [ %.0.i, %Lf_CutArea.exit ], [ %53, %48 ], [ 1.000000e+00, %45 ], [ %44, %41 ]
  %54 = getelementptr inbounds nuw i8, ptr %1, i64 24
  %55 = getelementptr i8, ptr %0, i64 176
  %56 = getelementptr i8, ptr %0, i64 240
  br label %57

57:                                               ; preds = %.lr.ph, %74
  %indvars.iv = phi i64 [ 0, %.lr.ph ], [ %indvars.iv.next, %74 ]
  %.021 = phi float [ %.0.i28, %.lr.ph ], [ %.1, %74 ]
  %58 = getelementptr inbounds nuw [0 x i32], ptr %54, i64 0, i64 %indvars.iv
  %59 = load i32, ptr %58, align 4, !tbaa !40
  %.not = icmp eq i32 %59, 0
  br i1 %.not, label %.critedge, label %60

60:                                               ; preds = %57
  %.val = load ptr, ptr %55, align 8, !tbaa !39
  %61 = sext i32 %59 to i64
  %62 = getelementptr inbounds i32, ptr %.val, i64 %61
  %63 = load i32, ptr %62, align 4, !tbaa !40
  %64 = icmp slt i32 %63, 0
  br i1 %64, label %74, label %65

65:                                               ; preds = %60
  %.val19 = load ptr, ptr %56, align 8, !tbaa !39
  %66 = zext nneg i32 %63 to i64
  %67 = getelementptr inbounds nuw i32, ptr %.val19, i64 %66
  %68 = load i32, ptr %67, align 4, !tbaa !40
  %69 = add nsw i32 %68, -1
  store i32 %69, ptr %67, align 4, !tbaa !40
  %.not17 = icmp eq i32 %69, 0
  br i1 %.not17, label %70, label %74

70:                                               ; preds = %65
  %71 = call fastcc ptr @Lf_ObjCutBestNew(ptr noundef nonnull %0, i32 noundef %59, ptr noundef %3)
  %72 = call float @Lf_CutDeref_rec(ptr noundef nonnull %0, ptr noundef nonnull %3)
  %73 = fadd float %.021, %72
  br label %74

74:                                               ; preds = %60, %70, %65
  %.1 = phi float [ %.021, %60 ], [ %.021, %65 ], [ %73, %70 ]
  %indvars.iv.next = add nuw nsw i64 %indvars.iv, 1
  %75 = load i32, ptr %4, align 4
  %76 = lshr i32 %75, 24
  %77 = zext nneg i32 %76 to i64
  %78 = icmp samesign ult i64 %indvars.iv.next, %77
  br i1 %78, label %57, label %.critedge, !llvm.loop !80

.critedge:                                        ; preds = %57, %74, %Lf_CutArea.exit
  %.0.lcssa = phi float [ %.0.i, %Lf_CutArea.exit ], [ %.1, %74 ], [ %.021, %57 ]
  call void @llvm.lifetime.end.p0(i64 80, ptr nonnull %3) #34
  ret float %.0.lcssa
}